; Function Attrs: mustprogress nofree norecurse nosync nounwind willreturn memory(read, inaccessiblemem: none) uwtable
define hidden noundef zeroext i1 @_ZNK19OpenColorIO_v2_4dev20GenericGpuShaderDesc17getAllowTexture1DEv(ptr nocapture noundef nonnull readonly align 8 dereferenceable(24) %this) unnamed_addr #7 align 2 personality ptr @__gxx_personality_v0 {
entry:
  %m_implGeneric.i = getelementptr inbounds i8, ptr %this, i64 16
  %0 = load ptr, ptr %m_implGeneric.i, align 8
  %m_allowTexture1D.i = getelementptr inbounds i8, ptr %0, i64 84
  %1 = load i8, ptr %m_allowTexture1D.i, align 4
  %2 = and i8 %1, 1
  %tobool.i = icmp ne i8 %2, 0
  ret i1 %tobool.i
}